; Function Attrs: nounwind uwtable
define ptr @l_Lean_Widget_withGoalCtx___rarg(ptr noundef %0, ptr noundef %1, ptr noundef %2, ptr noundef %3, ptr noundef %4, ptr readnone captures(none) %5, ptr noundef %6, ptr noundef %7) #1 {
  %9 = getelementptr inbounds nuw i8, ptr %1, i64 16
  %10 = load ptr, ptr %9, align 8, !tbaa !4
  %11 = ptrtoint ptr %10 to i64
  %12 = and i64 %11, 1
  %.not = icmp eq i64 %12, 0
  br i1 %.not, label %13, label %lean_inc.exit25

13:                                               ; preds = %8
  %.val.i = load i32, ptr %10, align 4, !tbaa !8
  %14 = icmp sgt i32 %.val.i, 0
  br i1 %14, label %15, label %17, !prof !11

15:                                               ; preds = %13
  %16 = add nuw i32 %.val.i, 1
  store i32 %16, ptr %10, align 4, !tbaa !8
  br label %lean_inc.exit25

17:                                               ; preds = %13
  %.not.i26 = icmp eq i32 %.val.i, 0
  br i1 %.not.i26, label %lean_inc.exit25, label %18

18:                                               ; preds = %17
  tail call void @lean_inc_ref_cold(ptr noundef nonnull %10) #6
  br label %lean_inc.exit25

lean_inc.exit25:                                  ; preds = %18, %17, %15, %8
  %19 = getelementptr inbounds nuw i8, ptr %4, i64 8
  %20 = load ptr, ptr %19, align 8, !tbaa !4
  %21 = ptrtoint ptr %20 to i64
  %22 = and i64 %21, 1
  %.not33 = icmp eq i64 %22, 0
  br i1 %.not33, label %23, label %lean_inc.exit24

23:                                               ; preds = %lean_inc.exit25
  %.val.i27 = load i32, ptr %20, align 4, !tbaa !8
  %24 = icmp sgt i32 %.val.i27, 0
  br i1 %24, label %25, label %27, !prof !11

25:                                               ; preds = %23
  %26 = add nuw i32 %.val.i27, 1
  store i32 %26, ptr %20, align 4, !tbaa !8
  br label %lean_inc.exit24

27:                                               ; preds = %23
  %.not.i28 = icmp eq i32 %.val.i27, 0
  br i1 %.not.i28, label %lean_inc.exit24, label %28

28:                                               ; preds = %27
  tail call void @lean_inc_ref_cold(ptr noundef nonnull %20) #6
  br label %lean_inc.exit24

lean_inc.exit24:                                  ; preds = %28, %27, %25, %lean_inc.exit25
  %29 = ptrtoint ptr %4 to i64
  %30 = and i64 %29, 1
  %.not34 = icmp eq i64 %30, 0
  br i1 %.not34, label %31, label %lean_dec.exit

31:                                               ; preds = %lean_inc.exit24
  %32 = load i32, ptr %4, align 4, !tbaa !8
  %33 = icmp sgt i32 %32, 1
  br i1 %33, label %34, label %36, !prof !11

34:                                               ; preds = %31
  %35 = add nsw i32 %32, -1
  store i32 %35, ptr %4, align 4, !tbaa !8
  br label %lean_dec.exit

36:                                               ; preds = %31
  %.not.i = icmp eq i32 %32, 0
  br i1 %.not.i, label %lean_dec.exit, label %37

37:                                               ; preds = %36
  tail call void @lean_dec_ref_cold(ptr noundef nonnull %4) #6
  br label %lean_dec.exit

lean_dec.exit:                                    ; preds = %37, %36, %34, %lean_inc.exit24
  br i1 %.not, label %38, label %lean_inc.exit

38:                                               ; preds = %lean_dec.exit
  %.val.i30 = load i32, ptr %10, align 4, !tbaa !8
  %39 = icmp sgt i32 %.val.i30, 0
  br i1 %39, label %40, label %42, !prof !11

40:                                               ; preds = %38
  %41 = add nuw i32 %.val.i30, 1
  store i32 %41, ptr %10, align 4, !tbaa !8
  br label %lean_inc.exit

42:                                               ; preds = %38
  %.not.i31 = icmp eq i32 %.val.i30, 0
  br i1 %.not.i31, label %lean_inc.exit, label %43

43:                                               ; preds = %42
  tail call void @lean_inc_ref_cold(ptr noundef nonnull %10) #6
  br label %lean_inc.exit

lean_inc.exit:                                    ; preds = %43, %42, %40, %lean_dec.exit
  tail call void @lean_inc_heartbeat() #6
  %44 = tail call noalias ptr @mi_malloc_small(i64 noundef 80) #6
  %45 = icmp eq ptr %44, null
  br i1 %45, label %46, label %lean_alloc_closure.exit

46:                                               ; preds = %lean_inc.exit
  tail call void @lean_internal_panic_out_of_memory() #7
  unreachable

lean_alloc_closure.exit:                          ; preds = %lean_inc.exit
  %47 = getelementptr inbounds nuw i8, ptr %44, i64 4
  store i32 1, ptr %44, align 4, !tbaa !8
  store i32 -184549296, ptr %47, align 4
  %48 = getelementptr inbounds nuw i8, ptr %44, i64 8
  store ptr @l_Lean_Widget_withGoalCtx___rarg___lambda__2, ptr %48, align 8, !tbaa !4
  %49 = getelementptr inbounds nuw i8, ptr %44, i64 16
  store i16 8, ptr %49, align 8, !tbaa !15
  %50 = getelementptr inbounds nuw i8, ptr %44, i64 18
  store i16 7, ptr %50, align 2, !tbaa !15
  %51 = getelementptr inbounds nuw i8, ptr %44, i64 24
  store ptr %6, ptr %51, align 8, !tbaa !4
  %52 = getelementptr inbounds nuw i8, ptr %44, i64 32
  store ptr %1, ptr %52, align 8, !tbaa !4
  %53 = getelementptr inbounds nuw i8, ptr %44, i64 40
  store ptr %2, ptr %53, align 8, !tbaa !4
  %54 = getelementptr inbounds nuw i8, ptr %44, i64 48
  store ptr %7, ptr %54, align 8, !tbaa !4
  %55 = getelementptr inbounds nuw i8, ptr %44, i64 56
  store ptr %0, ptr %55, align 8, !tbaa !4
  %56 = getelementptr inbounds nuw i8, ptr %44, i64 64
  store ptr %10, ptr %56, align 8, !tbaa !4
  %57 = getelementptr inbounds nuw i8, ptr %44, i64 72
  store ptr %3, ptr %57, align 8, !tbaa !4
  %58 = tail call ptr @lean_apply_4(ptr noundef %10, ptr noundef nonnull inttoptr (i64 1 to ptr), ptr noundef nonnull inttoptr (i64 1 to ptr), ptr noundef %20, ptr noundef nonnull %44) #6
  ret ptr %58
}